target datalayout = "e-m:e-p270:32:32-p271:32:32-p272:64:64-i64:64-i128:128-f80:128-n8:16:32:64-S128"
target triple = "x86_64-pc-linux-gnu"

%struct.dt_pthread_mutex_t = type { %union.pthread_mutex_t }
%union.pthread_mutex_t = type { %struct.__pthread_mutex_s }
%struct.__pthread_mutex_s = type { i32, i32, i32, i32, i32, i16, i16, %struct.__pthread_internal_list }
%struct.__pthread_internal_list = type { ptr, ptr }
%struct.dt_iop_module_t = type { i32, ptr, ptr, ptr, ptr, ptr, ptr, ptr, ptr, ptr, ptr, ptr, ptr, ptr, ptr, ptr, ptr, ptr, ptr, ptr, ptr, ptr, ptr, ptr, ptr, ptr, ptr, ptr, ptr, ptr, ptr, ptr, ptr, ptr, ptr, ptr, ptr, ptr, ptr, ptr, ptr, ptr, ptr, ptr, ptr, ptr, ptr, ptr, ptr, ptr, ptr, ptr, ptr, ptr, ptr, ptr, ptr, [20 x i8], i32, i32, i32, i32, i32, i32, i32, [8 x i8], [4 x float], [4 x float], [4 x float], [4 x float], [4 x float], [4 x float], ptr, %struct.dt_dev_histogram_stats_t, [4 x i32], i32, i32, ptr, i32, i32, ptr, ptr, i32, ptr, %struct.dt_pthread_mutex_t, ptr, ptr, ptr, ptr, %struct.anon, ptr, ptr, ptr, ptr, ptr, ptr, ptr, i32, ptr, ptr, ptr, ptr, ptr, ptr, ptr, i32, ptr, i32, [128 x i8], i32, ptr, ptr, i32, [12 x i8] }
%struct.dt_dev_histogram_stats_t = type { i32, i64, i32, i32 }
%struct.anon = type { %struct.anon.0, %struct.anon.1 }
%struct.anon.0 = type { ptr, ptr }
%struct.anon.1 = type { ptr, i32 }
%struct.dt_iop_gui_blend_data_t = type { i32, i32, i32, i32, i32, i32, i32, ptr, ptr, ptr, ptr, ptr, ptr, ptr, ptr, ptr, ptr, ptr, ptr, ptr, [2 x %struct.dt_iop_gui_blendif_filter_t], ptr, ptr, ptr, ptr, ptr, ptr, ptr, ptr, ptr, ptr, ptr, ptr, i32, i32, ptr, i32, [8 x [2 x i32]], i32, i32, ptr, i32, ptr, ptr, ptr, [5 x ptr], [5 x i32], ptr, ptr, ptr, i32, ptr, ptr, i32, %struct.dt_pthread_mutex_t }
%struct.dt_iop_gui_blendif_filter_t = type { ptr, ptr, [4 x ptr], ptr, ptr, ptr }
%struct.dt_develop_blend_params_t = type { i32, i32, i32, float, float, i32, i32, i32, float, i32, float, float, float, float, i32, [2 x i32], [64 x float], [16 x float], [20 x i8], i32, i32, i32 }

; Function Attrs: nounwind uwtable
define internal i32 @_blendif_clean_output_channels(ptr noundef %0) #0 {
  %2 = alloca i32, align 4
  %3 = alloca ptr, align 8
  %4 = alloca ptr, align 8
  %5 = alloca i32, align 4
  %6 = alloca i32, align 4
  %7 = alloca i32, align 4
  %8 = alloca ptr, align 8
  %9 = alloca i32, align 4
  %10 = alloca i32, align 4
  %11 = alloca i64, align 8
  store ptr %0, ptr %3, align 8, !tbaa !6
  call void @llvm.lifetime.start.p0(i64 8, ptr %4) #11
  %12 = load ptr, ptr %3, align 8, !tbaa !6
  %13 = getelementptr inbounds nuw %struct.dt_iop_module_t, ptr %12, i32 0, i32 88
  %14 = load ptr, ptr %13, align 8, !tbaa !15
  store ptr %14, ptr %4, align 8, !tbaa !31
  %15 = load ptr, ptr %4, align 8, !tbaa !31
  %16 = icmp ne ptr %15, null
  br i1 %16, label %17, label %27

17:                                               ; preds = %1
  %18 = load ptr, ptr %4, align 8, !tbaa !31
  %19 = getelementptr inbounds nuw %struct.dt_iop_gui_blend_data_t, ptr %18, i32 0, i32 0
  %20 = load i32, ptr %19, align 8, !tbaa !155
  %21 = icmp ne i32 %20, 0
  br i1 %21, label %22, label %27

22:                                               ; preds = %17
  %23 = load ptr, ptr %4, align 8, !tbaa !31
  %24 = getelementptr inbounds nuw %struct.dt_iop_gui_blend_data_t, ptr %23, i32 0, i32 2
  %25 = load i32, ptr %24, align 8, !tbaa !156
  %26 = icmp ne i32 %25, 0
  br i1 %26, label %28, label %27

27:                                               ; preds = %22, %17, %1
  store i32 0, ptr %2, align 4
  store i32 1, ptr %5, align 4
  br label %153

28:                                               ; preds = %22
  call void @llvm.lifetime.start.p0(i64 4, ptr %6) #11
  store i32 0, ptr %6, align 4, !tbaa !80
  %29 = load ptr, ptr %4, align 8, !tbaa !31
  %30 = getelementptr inbounds nuw %struct.dt_iop_gui_blend_data_t, ptr %29, i32 0, i32 41
  %31 = load i32, ptr %30, align 8, !tbaa !81
  %32 = icmp ne i32 %31, 0
  br i1 %32, label %151, label %33

33:                                               ; preds = %28
  call void @llvm.lifetime.start.p0(i64 4, ptr %7) #11
  %34 = load ptr, ptr %4, align 8, !tbaa !31
  %35 = getelementptr inbounds nuw %struct.dt_iop_gui_blend_data_t, ptr %34, i32 0, i32 6
  %36 = load i32, ptr %35, align 8, !tbaa !161
  %37 = icmp eq i32 %36, 2
  %38 = select i1 %37, i32 12400, i32 28912
  store i32 %38, ptr %7, align 4, !tbaa !80
  call void @llvm.lifetime.start.p0(i64 8, ptr %8) #11
  %39 = load ptr, ptr %3, align 8, !tbaa !6
  %40 = getelementptr inbounds nuw %struct.dt_iop_module_t, ptr %39, i32 0, i32 86
  %41 = load ptr, ptr %40, align 8, !tbaa !77
  store ptr %41, ptr %8, align 8, !tbaa !78
  call void @llvm.lifetime.start.p0(i64 4, ptr %9) #11
  %42 = load ptr, ptr %8, align 8, !tbaa !78
  %43 = getelementptr inbounds nuw %struct.dt_develop_blend_params_t, ptr %42, i32 0, i32 7
  %44 = load i32, ptr %43, align 4, !tbaa !129
  store i32 %44, ptr %9, align 4, !tbaa !80
  call void @llvm.lifetime.start.p0(i64 4, ptr %10) #11
  %45 = load ptr, ptr %8, align 8, !tbaa !78
  %46 = getelementptr inbounds nuw %struct.dt_develop_blend_params_t, ptr %45, i32 0, i32 5
  %47 = load i32, ptr %46, align 4, !tbaa !131
  %48 = and i32 %47, 2
  %49 = icmp ne i32 %48, 0
  br i1 %49, label %50, label %53

50:                                               ; preds = %33
  %51 = load i32, ptr %7, align 4, !tbaa !80
  %52 = shl i32 %51, 16
  br label %54

53:                                               ; preds = %33
  br label %54

54:                                               ; preds = %53, %50
  %55 = phi i32 [ %52, %50 ], [ 0, %53 ]
  store i32 %55, ptr %10, align 4, !tbaa !80
  %56 = load ptr, ptr %8, align 8, !tbaa !78
  %57 = getelementptr inbounds nuw %struct.dt_develop_blend_params_t, ptr %56, i32 0, i32 7
  %58 = load i32, ptr %57, align 4, !tbaa !129
  %59 = load i32, ptr %7, align 4, !tbaa !80
  %60 = load i32, ptr %7, align 4, !tbaa !80
  %61 = shl i32 %60, 16
  %62 = or i32 %59, %61
  %63 = xor i32 %62, -1
  %64 = and i32 %58, %63
  %65 = load i32, ptr %10, align 4, !tbaa !80
  %66 = or i32 %64, %65
  %67 = load ptr, ptr %8, align 8, !tbaa !78
  %68 = getelementptr inbounds nuw %struct.dt_develop_blend_params_t, ptr %67, i32 0, i32 7
  store i32 %66, ptr %68, align 4, !tbaa !129
  %69 = load ptr, ptr %8, align 8, !tbaa !78
  %70 = getelementptr inbounds nuw %struct.dt_develop_blend_params_t, ptr %69, i32 0, i32 7
  %71 = load i32, ptr %70, align 4, !tbaa !129
  %72 = load i32, ptr %9, align 4, !tbaa !80
  %73 = icmp ne i32 %71, %72
  %74 = zext i1 %73 to i32
  store i32 %74, ptr %6, align 4, !tbaa !80
  call void @llvm.lifetime.start.p0(i64 8, ptr %11) #11
  store i64 0, ptr %11, align 8, !tbaa !82
  br label %75

75:                                               ; preds = %147, %54
  %76 = load i64, ptr %11, align 8, !tbaa !82
  %77 = icmp ult i64 %76, 16
  br i1 %77, label %79, label %78

78:                                               ; preds = %75
  store i32 2, ptr %5, align 4
  call void @llvm.lifetime.end.p0(i64 8, ptr %11) #11
  br label %150

79:                                               ; preds = %75
  %80 = load i64, ptr %11, align 8, !tbaa !82
  %81 = trunc i64 %80 to i32
  %82 = shl i32 1, %81
  %83 = and i32 61680, %82
  %84 = icmp ne i32 %83, 0
  br i1 %84, label %85, label %146

85:                                               ; preds = %79
  %86 = load ptr, ptr %8, align 8, !tbaa !78
  %87 = getelementptr inbounds nuw %struct.dt_develop_blend_params_t, ptr %86, i32 0, i32 16
  %88 = load i64, ptr %11, align 8, !tbaa !82
  %89 = mul i64 %88, 4
  %90 = add i64 %89, 0
  %91 = getelementptr inbounds nuw [64 x float], ptr %87, i64 0, i64 %90
  %92 = load float, ptr %91, align 4, !tbaa !83
  %93 = fcmp reassoc nsz arcp contract afn une float %92, 0.000000e+00
  br i1 %93, label %121, label %94

94:                                               ; preds = %85
  %95 = load ptr, ptr %8, align 8, !tbaa !78
  %96 = getelementptr inbounds nuw %struct.dt_develop_blend_params_t, ptr %95, i32 0, i32 16
  %97 = load i64, ptr %11, align 8, !tbaa !82
  %98 = mul i64 %97, 4
  %99 = add i64 %98, 1
  %100 = getelementptr inbounds nuw [64 x float], ptr %96, i64 0, i64 %99
  %101 = load float, ptr %100, align 4, !tbaa !83
  %102 = fcmp reassoc nsz arcp contract afn une float %101, 0.000000e+00
  br i1 %102, label %121, label %103

103:                                              ; preds = %94
  %104 = load ptr, ptr %8, align 8, !tbaa !78
  %105 = getelementptr inbounds nuw %struct.dt_develop_blend_params_t, ptr %104, i32 0, i32 16
  %106 = load i64, ptr %11, align 8, !tbaa !82
  %107 = mul i64 %106, 4
  %108 = add i64 %107, 2
  %109 = getelementptr inbounds nuw [64 x float], ptr %105, i64 0, i64 %108
  %110 = load float, ptr %109, align 4, !tbaa !83
  %111 = fcmp reassoc nsz arcp contract afn une float %110, 1.000000e+00
  br i1 %111, label %121, label %112

112:                                              ; preds = %103
  %113 = load ptr, ptr %8, align 8, !tbaa !78
  %114 = getelementptr inbounds nuw %struct.dt_develop_blend_params_t, ptr %113, i32 0, i32 16
  %115 = load i64, ptr %11, align 8, !tbaa !82
  %116 = mul i64 %115, 4
  %117 = add i64 %116, 3
  %118 = getelementptr inbounds nuw [64 x float], ptr %114, i64 0, i64 %117
  %119 = load float, ptr %118, align 4, !tbaa !83
  %120 = fcmp reassoc nsz arcp contract afn une float %119, 1.000000e+00
  br i1 %120, label %121, label %146

121:                                              ; preds = %112, %103, %94, %85
  store i32 1, ptr %6, align 4, !tbaa !80
  %122 = load ptr, ptr %8, align 8, !tbaa !78
  %123 = getelementptr inbounds nuw %struct.dt_develop_blend_params_t, ptr %122, i32 0, i32 16
  %124 = load i64, ptr %11, align 8, !tbaa !82
  %125 = mul i64 %124, 4
  %126 = add i64 %125, 0
  %127 = getelementptr inbounds nuw [64 x float], ptr %123, i64 0, i64 %126
  store float 0.000000e+00, ptr %127, align 4, !tbaa !83
  %128 = load ptr, ptr %8, align 8, !tbaa !78
  %129 = getelementptr inbounds nuw %struct.dt_develop_blend_params_t, ptr %128, i32 0, i32 16
  %130 = load i64, ptr %11, align 8, !tbaa !82
  %131 = mul i64 %130, 4
  %132 = add i64 %131, 1
  %133 = getelementptr inbounds nuw [64 x float], ptr %129, i64 0, i64 %132
  store float 0.000000e+00, ptr %133, align 4, !tbaa !83
  %134 = load ptr, ptr %8, align 8, !tbaa !78
  %135 = getelementptr inbounds nuw %struct.dt_develop_blend_params_t, ptr %134, i32 0, i32 16
  %136 = load i64, ptr %11, align 8, !tbaa !82
  %137 = mul i64 %136, 4
  %138 = add i64 %137, 2
  %139 = getelementptr inbounds nuw [64 x float], ptr %135, i64 0, i64 %138
  store float 1.000000e+00, ptr %139, align 4, !tbaa !83
  %140 = load ptr, ptr %8, align 8, !tbaa !78
  %141 = getelementptr inbounds nuw %struct.dt_develop_blend_params_t, ptr %140, i32 0, i32 16
  %142 = load i64, ptr %11, align 8, !tbaa !82
  %143 = mul i64 %142, 4
  %144 = add i64 %143, 3
  %145 = getelementptr inbounds nuw [64 x float], ptr %141, i64 0, i64 %144
  store float 1.000000e+00, ptr %145, align 4, !tbaa !83
  br label %146

146:                                              ; preds = %121, %112, %79
  br label %147

147:                                              ; preds = %146
  %148 = load i64, ptr %11, align 8, !tbaa !82
  %149 = add i64 %148, 1
  store i64 %149, ptr %11, align 8, !tbaa !82
  br label %75

150:                                              ; preds = %78
  call void @llvm.lifetime.end.p0(i64 4, ptr %10) #11
  call void @llvm.lifetime.end.p0(i64 4, ptr %9) #11
  call void @llvm.lifetime.end.p0(i64 8, ptr %8) #11
  call void @llvm.lifetime.end.p0(i64 4, ptr %7) #11
  br label %151

151:                                              ; preds = %150, %28
  %152 = load i32, ptr %6, align 4, !tbaa !80
  store i32 %152, ptr %2, align 4
  store i32 1, ptr %5, align 4
  call void @llvm.lifetime.end.p0(i64 4, ptr %6) #11
  br label %153

153:                                              ; preds = %151, %27
  call void @llvm.lifetime.end.p0(i64 8, ptr %4) #11
  %154 = load i32, ptr %2, align 4
  ret i32 %154
}