; Function Attrs: nofree norecurse nosync nounwind memory(readwrite, inaccessiblemem: none) uwtable
define internal fastcc range(i32 0, 2) i32 @_blendif_clean_output_channels(ptr noundef readonly captures(none) %0) unnamed_addr #17 {
  %2 = getelementptr inbounds nuw i8, ptr %0, i64 776
  %3 = load ptr, ptr %2, align 8, !tbaa !6
  %.not = icmp eq ptr %3, null
  br i1 %.not, label %.loopexit, label %4

4:                                                ; preds = %1
  %5 = load i32, ptr %3, align 8, !tbaa !141
  %.not40 = icmp eq i32 %5, 0
  br i1 %.not40, label %.loopexit, label %6

6:                                                ; preds = %4
  %7 = getelementptr inbounds nuw i8, ptr %3, i64 8
  %8 = load i32, ptr %7, align 8, !tbaa !142
  %.not41 = icmp eq i32 %8, 0
  br i1 %.not41, label %.loopexit, label %9

9:                                                ; preds = %6
  %10 = getelementptr inbounds nuw i8, ptr %3, i64 480
  %11 = load i32, ptr %10, align 8, !tbaa !73
  %.not42 = icmp eq i32 %11, 0
  br i1 %.not42, label %12, label %.loopexit

12:                                               ; preds = %9
  %13 = getelementptr inbounds nuw i8, ptr %3, i64 24
  %14 = load i32, ptr %13, align 8, !tbaa !147
  %15 = icmp eq i32 %14, 2
  %16 = select i1 %15, i32 12400, i32 28912
  %17 = getelementptr inbounds nuw i8, ptr %0, i64 760
  %18 = load ptr, ptr %17, align 8, !tbaa !71
  %19 = getelementptr inbounds nuw i8, ptr %18, i64 28
  %20 = load i32, ptr %19, align 4, !tbaa !116
  %21 = getelementptr inbounds nuw i8, ptr %18, i64 20
  %22 = load i32, ptr %21, align 4, !tbaa !118
  %23 = and i32 %22, 2
  %.not43 = icmp eq i32 %23, 0
  %24 = shl nuw nsw i32 %16, 16
  %25 = select i1 %.not43, i32 0, i32 %24
  %26 = or disjoint i32 %24, %16
  %27 = xor i32 %26, -1
  %28 = and i32 %20, %27
  %29 = or i32 %25, %28
  store i32 %29, ptr %19, align 4, !tbaa !116
  %30 = icmp ne i32 %29, %20
  %31 = zext i1 %30 to i32
  %32 = getelementptr inbounds nuw i8, ptr %18, i64 68
  br label %33

33:                                               ; preds = %12, %61
  %.046 = phi i64 [ 0, %12 ], [ %62, %61 ]
  %.145 = phi i32 [ %31, %12 ], [ %.2, %61 ]
  %34 = trunc nuw nsw i64 %.046 to i32
  %35 = shl nuw nsw i32 1, %34
  %36 = and i32 %35, 61680
  %.not44 = icmp eq i32 %36, 0
  br i1 %.not44, label %61, label %37

37:                                               ; preds = %33
  %38 = shl nuw nsw i64 %.046, 2
  %39 = getelementptr inbounds nuw [64 x float], ptr %32, i64 0, i64 %38
  %40 = load float, ptr %39, align 4, !tbaa !74
  %41 = fcmp reassoc nsz arcp contract afn une float %40, 0.000000e+00
  %.pre = or disjoint i64 %38, 1
  br i1 %41, label %._crit_edge, label %42

42:                                               ; preds = %37
  %43 = getelementptr inbounds nuw [64 x float], ptr %32, i64 0, i64 %.pre
  %44 = load float, ptr %43, align 4, !tbaa !74
  %45 = fcmp reassoc nsz arcp contract afn une float %44, 0.000000e+00
  br i1 %45, label %._crit_edge, label %46

46:                                               ; preds = %42
  %47 = or disjoint i64 %38, 2
  %48 = getelementptr inbounds nuw [64 x float], ptr %32, i64 0, i64 %47
  %49 = load float, ptr %48, align 4, !tbaa !74
  %50 = fcmp reassoc nsz arcp contract afn une float %49, 1.000000e+00
  br i1 %50, label %._crit_edge, label %51

51:                                               ; preds = %46
  %52 = or disjoint i64 %38, 3
  %53 = getelementptr inbounds nuw [64 x float], ptr %32, i64 0, i64 %52
  %54 = load float, ptr %53, align 4, !tbaa !74
  %55 = fcmp reassoc nsz arcp contract afn une float %54, 1.000000e+00
  br i1 %55, label %._crit_edge, label %61

._crit_edge:                                      ; preds = %37, %51, %46, %42
  store float 0.000000e+00, ptr %39, align 4, !tbaa !74
  %56 = getelementptr inbounds nuw [64 x float], ptr %32, i64 0, i64 %.pre
  store float 0.000000e+00, ptr %56, align 4, !tbaa !74
  %57 = or disjoint i64 %38, 2
  %58 = getelementptr inbounds nuw [64 x float], ptr %32, i64 0, i64 %57
  store float 1.000000e+00, ptr %58, align 4, !tbaa !74
  %59 = or disjoint i64 %38, 3
  %60 = getelementptr inbounds nuw [64 x float], ptr %32, i64 0, i64 %59
  store float 1.000000e+00, ptr %60, align 4, !tbaa !74
  br label %61

61:                                               ; preds = %33, %51, %._crit_edge
  %.2 = phi i32 [ 1, %._crit_edge ], [ %.145, %51 ], [ %.145, %33 ]
  %62 = add nuw nsw i64 %.046, 1
  %exitcond.not = icmp eq i64 %62, 16
  br i1 %exitcond.not, label %.loopexit, label %33

.loopexit:                                        ; preds = %61, %9, %1, %4, %6
  %.037 = phi i32 [ 0, %6 ], [ 0, %4 ], [ 0, %1 ], [ 0, %9 ], [ %.2, %61 ]
  ret i32 %.037
}